; Function Attrs: mustprogress uwtable
define hidden noundef zeroext i1 @_ZN4lean18has_expr_mvar_coreERKNS_4exprE(ptr noundef nonnull readonly align 8 captures(none) dereferenceable(8) %0) local_unnamed_addr #0 {
  %2 = load ptr, ptr %0, align 8, !tbaa !10
  %3 = ptrtoint ptr %2 to i64
  %4 = and i64 %3, 1
  %.not.i.i = icmp eq i64 %4, 0
  br i1 %.not.i.i, label %5, label %_ZNK4lean10object_ref10to_obj_argEv.exit

5:                                                ; preds = %1
  %.val.i.i.i = load i32, ptr %2, align 4, !tbaa !21
  %6 = icmp sgt i32 %.val.i.i.i, 0
  br i1 %6, label %7, label %9, !prof !24

7:                                                ; preds = %5
  %8 = add nuw nsw i32 %.val.i.i.i, 1
  store i32 %8, ptr %2, align 4, !tbaa !21
  br label %_ZNK4lean10object_ref10to_obj_argEv.exit

9:                                                ; preds = %5
  %.not.i.i.i = icmp eq i32 %.val.i.i.i, 0
  br i1 %.not.i.i.i, label %_ZNK4lean10object_ref10to_obj_argEv.exit, label %10

10:                                               ; preds = %9
  tail call void @lean_inc_ref_cold(ptr noundef nonnull %2)
  %.pre.i = load ptr, ptr %0, align 8, !tbaa !10
  br label %_ZNK4lean10object_ref10to_obj_argEv.exit

_ZNK4lean10object_ref10to_obj_argEv.exit:         ; preds = %1, %7, %9, %10
  %11 = phi ptr [ %2, %1 ], [ %2, %7 ], [ %2, %9 ], [ %.pre.i, %10 ]
  %12 = tail call zeroext i8 @lean_expr_has_expr_mvar(ptr noundef %11)
  %13 = icmp ne i8 %12, 0
  ret i1 %13
}